target datalayout = "e-m:e-p270:32:32-p271:32:32-p272:64:64-i64:64-i128:128-f80:128-n8:16:32:64-S128"
target triple = "x86_64-pc-linux-gnu"

%struct.auth_ops_t = type { ptr, ptr, ptr, ptr, ptr, ptr, ptr, ptr, ptr, ptr, ptr, ptr, ptr, ptr, ptr, ptr }

@ops = internal global ptr null, align 8
@.str.17 = private unnamed_addr constant [32 x i8] c"%s: pthread_rwlock_unlock(): %m\00", align 1
@.str.19 = private unnamed_addr constant [32 x i8] c"%s: pthread_rwlock_rdlock(): %m\00", align 1
@__func__.auth_g_thread_clear = private unnamed_addr constant [20 x i8] c"auth_g_thread_clear\00", align 1
@context_lock = internal global { { i32, i32, i32, i32, i32, i32, i32, i32, i8, [7 x i8], i64, i32, [4 x i8] } } zeroinitializer, align 8

; Function Attrs: nounwind uwtable
define dso_local void @auth_g_thread_clear() #0 {
  %1 = alloca i32, align 4
  %2 = alloca i32, align 4
  br label %3

3:                                                ; preds = %0
  call void @llvm.lifetime.start.p0(i64 4, ptr %1) #6
  %4 = call i32 @pthread_rwlock_rdlock(ptr noundef @context_lock) #6
  store i32 %4, ptr %1, align 4
  %5 = load i32, ptr %1, align 4
  %6 = icmp ne i32 %5, 0
  br i1 %6, label %7, label %10

7:                                                ; preds = %3
  %8 = load i32, ptr %1, align 4
  %9 = call ptr @__errno_location() #8
  store i32 %8, ptr %9, align 4
  call void (ptr, ...) @fatal_abort(ptr noundef @.str.19, ptr noundef @__func__.auth_g_thread_clear) #7
  unreachable

10:                                               ; preds = %3
  call void @llvm.lifetime.end.p0(i64 4, ptr %1) #6
  br label %11

11:                                               ; preds = %10
  %12 = load ptr, ptr @ops, align 8
  %13 = getelementptr inbounds %struct.auth_ops_t, ptr %12, i64 0
  %14 = getelementptr inbounds nuw %struct.auth_ops_t, ptr %13, i32 0, i32 13
  %15 = load ptr, ptr %14, align 8
  call void %15()
  br label %16

16:                                               ; preds = %11
  call void @llvm.lifetime.start.p0(i64 4, ptr %2) #6
  %17 = call i32 @pthread_rwlock_unlock(ptr noundef @context_lock) #6
  store i32 %17, ptr %2, align 4
  %18 = load i32, ptr %2, align 4
  %19 = icmp ne i32 %18, 0
  br i1 %19, label %20, label %23

20:                                               ; preds = %16
  %21 = load i32, ptr %2, align 4
  %22 = call ptr @__errno_location() #8
  store i32 %21, ptr %22, align 4
  call void (ptr, ...) @fatal_abort(ptr noundef @.str.17, ptr noundef @__func__.auth_g_thread_clear) #7
  unreachable

23:                                               ; preds = %16
  call void @llvm.lifetime.end.p0(i64 4, ptr %2) #6
  br label %24

24:                                               ; preds = %23
  ret void
}